target datalayout = "e-m:e-p270:32:32-p271:32:32-p272:64:64-i64:64-i128:128-f80:128-n8:16:32:64-S128"
target triple = "x86_64-pc-linux-gnu"

%"class.euf::egraph" = type { ptr, %class.svector, %"class.euf::etable", %class.region, %class.scoped_ptr_vector, %class.svector.3, %class.svector.5, %class.ptr_vector.7, ptr, ptr, i32, %class.tmp_app, %class.ptr_vector.7, %class.ref_vector, %class.ref_vector.11, %class.vector.16, %class.ptr_vector.7, i32, i8, ptr, ptr, %"class.euf::justification", i32, %class.svector.18, %class.svector.20, %class.ptr_vector.7, %"struct.euf::egraph::stats", i8, i8, i64, %"class.std::vector", %"class.std::function", %"class.std::function.22", %"class.std::function.24", %"class.std::function.26", %"class.std::function.29" }
%class.svector = type { %class.vector }
%class.vector = type { ptr }
%"class.euf::etable" = type { ptr, i8, %class.ptr_vector, %class.map }
%class.ptr_vector = type { %class.vector.0 }
%class.vector.0 = type { ptr }
%class.map = type { %class.table2map }
%class.table2map = type { %class.core_hashtable }
%class.core_hashtable = type <{ ptr, i32, i32, i32, [4 x i8] }>
%class.region = type { ptr, ptr, ptr, ptr, ptr }
%class.scoped_ptr_vector = type { %class.ptr_vector.1 }
%class.ptr_vector.1 = type { %class.vector.2 }
%class.vector.2 = type { ptr }
%class.svector.3 = type { %class.vector.4 }
%class.vector.4 = type { ptr }
%class.svector.5 = type { %class.vector.6 }
%class.vector.6 = type { ptr }
%class.tmp_app = type { i32, ptr }
%class.ref_vector = type { %class.ref_vector_core }
%class.ref_vector_core = type { %class.ref_manager_wrapper, %class.ptr_vector.9 }
%class.ref_manager_wrapper = type { ptr }
%class.ptr_vector.9 = type { %class.vector.10 }
%class.vector.10 = type { ptr }
%class.ref_vector.11 = type { %class.ref_vector_core.12 }
%class.ref_vector_core.12 = type { %class.ref_manager_wrapper.13, %class.ptr_vector.14 }
%class.ref_manager_wrapper.13 = type { ptr }
%class.ptr_vector.14 = type { %class.vector.15 }
%class.vector.15 = type { ptr }
%class.vector.16 = type { ptr }
%"class.euf::justification" = type { i32, %union.anon, %union.anon.17 }
%union.anon = type { ptr }
%union.anon.17 = type { ptr }
%class.svector.18 = type { %class.vector.19 }
%class.vector.19 = type { ptr }
%class.svector.20 = type { %class.vector.21 }
%class.vector.21 = type { ptr }
%class.ptr_vector.7 = type { %class.vector.8 }
%class.vector.8 = type { ptr }
%"struct.euf::egraph::stats" = type { i32, i32, i32, i32, i32, i32 }
%"class.std::vector" = type { %"struct.std::_Vector_base" }
%"struct.std::_Vector_base" = type { %"struct.std::_Vector_base<std::function<void (euf::enode *, euf::enode *)>, std::allocator<std::function<void (euf::enode *, euf::enode *)>>>::_Vector_impl" }
%"struct.std::_Vector_base<std::function<void (euf::enode *, euf::enode *)>, std::allocator<std::function<void (euf::enode *, euf::enode *)>>>::_Vector_impl" = type { %"struct.std::_Vector_base<std::function<void (euf::enode *, euf::enode *)>, std::allocator<std::function<void (euf::enode *, euf::enode *)>>>::_Vector_impl_data" }
%"struct.std::_Vector_base<std::function<void (euf::enode *, euf::enode *)>, std::allocator<std::function<void (euf::enode *, euf::enode *)>>>::_Vector_impl_data" = type { ptr, ptr, ptr }
%"class.std::function" = type { %"class.std::_Function_base", ptr }
%"class.std::_Function_base" = type { %"union.std::_Any_data", ptr }
%"union.std::_Any_data" = type { %"union.std::_Nocopy_types" }
%"union.std::_Nocopy_types" = type { { i64, i64 } }
%"class.std::function.22" = type { %"class.std::_Function_base", ptr }
%"class.std::function.24" = type { %"class.std::_Function_base", ptr }
%"class.std::function.26" = type { %"class.std::_Function_base", ptr }
%"class.std::function.29" = type { %"class.std::_Function_base", ptr }
%"class.euf::enode" = type { ptr, i8, i8, i8, i8, i8, i8, i8, i8, i8, i32, i32, i32, i32, i32, i32, %class.ptr_vector.7, ptr, ptr, ptr, ptr, %class.id_var_list, %"class.euf::justification", %"class.euf::justification", i32, i8, %class.approx_set, %class.approx_set, [0 x ptr] }
%class.id_var_list = type { i32, ptr }
%class.approx_set = type { %class.approx_set_tpl }
%class.approx_set_tpl = type { i64 }

; Function Attrs: mustprogress nounwind uwtable
define linkonce_odr hidden void @_ZN3euf5enode7unmark2Ev(ptr noundef nonnull align 8 dereferenceable(176) %0) #6 comdat align 2 {
  %2 = alloca ptr, align 8
  store ptr %0, ptr %2, align 8, !tbaa !15
  %3 = load ptr, ptr %2, align 8
  %4 = getelementptr inbounds nuw %"class.euf::enode", ptr %3, i32 0, i32 2
  store i8 0, ptr %4, align 1, !tbaa !379
  ret void
}

; Function Attrs: mustprogress nounwind uwtable
define linkonce_odr hidden void @_ZN3euf5enode5mark2Ev(ptr noundef nonnull align 8 dereferenceable(176) %0) #6 comdat align 2 {
  %2 = alloca ptr, align 8
  store ptr %0, ptr %2, align 8, !tbaa !15
  %3 = load ptr, ptr %2, align 8
  %4 = getelementptr inbounds nuw %"class.euf::enode", ptr %3, i32 0, i32 2
  store i8 1, ptr %4, align 1, !tbaa !379
  ret void
}

; Function Attrs: mustprogress uwtable
define linkonce_odr hidden noundef nonnull align 8 dereferenceable(8) ptr @_ZN6vectorIPN3euf5enodeELb0EjE9push_backERKS2_(ptr noundef nonnull align 8 dereferenceable(8) %0, ptr noundef nonnull align 8 dereferenceable(8) %1) #4 comdat align 2 {
  %3 = alloca ptr, align 8
  %4 = alloca ptr, align 8
  store ptr %0, ptr %3, align 8, !tbaa !106
  store ptr %1, ptr %4, align 8, !tbaa !12
  %5 = load ptr, ptr %3, align 8
  %6 = getelementptr inbounds nuw %class.vector.8, ptr %5, i32 0, i32 0
  %7 = load ptr, ptr %6, align 8, !tbaa !108
  %8 = icmp eq ptr %7, null
  br i1 %8, label %19, label %9

9:                                                ; preds = %2
  %10 = getelementptr inbounds nuw %class.vector.8, ptr %5, i32 0, i32 0
  %11 = load ptr, ptr %10, align 8, !tbaa !108
  %12 = getelementptr inbounds i32, ptr %11, i64 -1
  %13 = load i32, ptr %12, align 4, !tbaa !10
  %14 = getelementptr inbounds nuw %class.vector.8, ptr %5, i32 0, i32 0
  %15 = load ptr, ptr %14, align 8, !tbaa !108
  %16 = getelementptr inbounds i32, ptr %15, i64 -2
  %17 = load i32, ptr %16, align 4, !tbaa !10
  %18 = icmp eq i32 %13, %17
  br i1 %18, label %19, label %20

19:                                               ; preds = %9, %2
  call void @_ZN6vectorIPN3euf5enodeELb0EjE13expand_vectorEv(ptr noundef nonnull align 8 dereferenceable(8) %5)
  br label %20

20:                                               ; preds = %19, %9
  %21 = getelementptr inbounds nuw %class.vector.8, ptr %5, i32 0, i32 0
  %22 = load ptr, ptr %21, align 8, !tbaa !108
  %23 = getelementptr inbounds nuw %class.vector.8, ptr %5, i32 0, i32 0
  %24 = load ptr, ptr %23, align 8, !tbaa !108
  %25 = getelementptr inbounds i32, ptr %24, i64 -1
  %26 = load i32, ptr %25, align 4, !tbaa !10
  %27 = zext i32 %26 to i64
  %28 = getelementptr inbounds nuw ptr, ptr %22, i64 %27
  %29 = load ptr, ptr %4, align 8, !tbaa !12
  %30 = load ptr, ptr %29, align 8, !tbaa !15
  store ptr %30, ptr %28, align 8, !tbaa !15
  %31 = getelementptr inbounds nuw %class.vector.8, ptr %5, i32 0, i32 0
  %32 = load ptr, ptr %31, align 8, !tbaa !108
  %33 = getelementptr inbounds i32, ptr %32, i64 -1
  %34 = load i32, ptr %33, align 4, !tbaa !10
  %35 = add i32 %34, 1
  store i32 %35, ptr %33, align 4, !tbaa !10
  ret ptr %5
}

; Function Attrs: mustprogress uwtable
define linkonce_odr hidden void @_ZN3euf5enode13mark2_targetsILb0EEEvv(ptr noundef nonnull align 8 dereferenceable(176) %0) #4 comdat align 2 {
  %2 = alloca ptr, align 8
  %3 = alloca ptr, align 8
  store ptr %0, ptr %2, align 8, !tbaa !15
  %4 = load ptr, ptr %2, align 8
  call void @llvm.lifetime.start.p0(i64 8, ptr %3) #3
  store ptr %4, ptr %3, align 8, !tbaa !15
  br label %5

5:                                                ; preds = %8, %1
  %6 = load ptr, ptr %3, align 8, !tbaa !15
  %7 = icmp ne ptr %6, null
  br i1 %7, label %8, label %13

8:                                                ; preds = %5
  %9 = load ptr, ptr %3, align 8, !tbaa !15
  call void @_ZN3euf5enode7unmark2Ev(ptr noundef nonnull align 8 dereferenceable(176) %9)
  %10 = load ptr, ptr %3, align 8, !tbaa !15
  %11 = getelementptr inbounds nuw %"class.euf::enode", ptr %10, i32 0, i32 19
  %12 = load ptr, ptr %11, align 8, !tbaa !367
  store ptr %12, ptr %3, align 8, !tbaa !15
  br label %5, !llvm.loop !380

13:                                               ; preds = %5
  call void @llvm.lifetime.end.p0(i64 8, ptr %3) #3
  ret void
}

; Function Attrs: mustprogress nounwind uwtable
define linkonce_odr hidden noundef zeroext i1 @_ZN3euf5enode10is_marked2Ev(ptr noundef nonnull align 8 dereferenceable(176) %0) #6 comdat align 2 {
  %2 = alloca ptr, align 8
  store ptr %0, ptr %2, align 8, !tbaa !15
  %3 = load ptr, ptr %2, align 8
  %4 = getelementptr inbounds nuw %"class.euf::enode", ptr %3, i32 0, i32 2
  %5 = load i8, ptr %4, align 1, !tbaa !379, !range !82, !noundef !83
  %6 = trunc i8 %5 to i1
  ret i1 %6
}

; Function Attrs: mustprogress uwtable
define linkonce_odr hidden void @_ZN3euf5enode13mark2_targetsILb1EEEvv(ptr noundef nonnull align 8 dereferenceable(176) %0) #4 comdat align 2 {
  %2 = alloca ptr, align 8
  %3 = alloca ptr, align 8
  store ptr %0, ptr %2, align 8, !tbaa !15
  %4 = load ptr, ptr %2, align 8
  call void @llvm.lifetime.start.p0(i64 8, ptr %3) #3
  store ptr %4, ptr %3, align 8, !tbaa !15
  br label %5

5:                                                ; preds = %8, %1
  %6 = load ptr, ptr %3, align 8, !tbaa !15
  %7 = icmp ne ptr %6, null
  br i1 %7, label %8, label %13

8:                                                ; preds = %5
  %9 = load ptr, ptr %3, align 8, !tbaa !15
  call void @_ZN3euf5enode5mark2Ev(ptr noundef nonnull align 8 dereferenceable(176) %9)
  %10 = load ptr, ptr %3, align 8, !tbaa !15
  %11 = getelementptr inbounds nuw %"class.euf::enode", ptr %10, i32 0, i32 19
  %12 = load ptr, ptr %11, align 8, !tbaa !367
  store ptr %12, ptr %3, align 8, !tbaa !15
  br label %5, !llvm.loop !378

13:                                               ; preds = %5
  call void @llvm.lifetime.end.p0(i64 8, ptr %3) #3
  ret void
}

; Function Attrs: mustprogress uwtable
define hidden void @_ZN3euf6egraph11push_to_lcaEPNS_5enodeES2_(ptr noundef nonnull align 8 dereferenceable(536) %0, ptr noundef %1, ptr noundef %2) #4 align 2 {
  %4 = alloca ptr, align 8
  %5 = alloca ptr, align 8
  %6 = alloca ptr, align 8
  store ptr %0, ptr %4, align 8, !tbaa !3
  store ptr %1, ptr %5, align 8, !tbaa !15
  store ptr %2, ptr %6, align 8, !tbaa !15
  %7 = load ptr, ptr %4, align 8
  br label %8

8:                                                ; preds = %12, %3
  %9 = load ptr, ptr %5, align 8, !tbaa !15
  %10 = load ptr, ptr %6, align 8, !tbaa !15
  %11 = icmp ne ptr %9, %10
  br i1 %11, label %12, label %18

12:                                               ; preds = %8
  %13 = getelementptr inbounds nuw %"class.euf::egraph", ptr %7, i32 0, i32 25
  %14 = call noundef nonnull align 8 dereferenceable(8) ptr @_ZN6vectorIPN3euf5enodeELb0EjE9push_backERKS2_(ptr noundef nonnull align 8 dereferenceable(8) %13, ptr noundef nonnull align 8 dereferenceable(8) %5)
  %15 = load ptr, ptr %5, align 8, !tbaa !15
  %16 = getelementptr inbounds nuw %"class.euf::enode", ptr %15, i32 0, i32 19
  %17 = load ptr, ptr %16, align 8, !tbaa !367
  store ptr %17, ptr %5, align 8, !tbaa !15
  br label %8, !llvm.loop !381

18:                                               ; preds = %8
  ret void
}

; Function Attrs: mustprogress uwtable
define hidden noundef ptr @_ZN3euf6egraph8find_lcaEPNS_5enodeES2_(ptr noundef nonnull align 8 dereferenceable(536) %0, ptr noundef %1, ptr noundef %2) #4 align 2 {
  %4 = alloca ptr, align 8
  %5 = alloca ptr, align 8
  %6 = alloca ptr, align 8
  store ptr %0, ptr %4, align 8, !tbaa !3
  store ptr %1, ptr %5, align 8, !tbaa !15
  store ptr %2, ptr %6, align 8, !tbaa !15
  %7 = load ptr, ptr %5, align 8, !tbaa !15
  call void @_ZN3euf5enode13mark2_targetsILb1EEEvv(ptr noundef nonnull align 8 dereferenceable(176) %7)
  br label %8

8:                                                ; preds = %12, %3
  %9 = load ptr, ptr %6, align 8, !tbaa !15
  %10 = call noundef zeroext i1 @_ZN3euf5enode10is_marked2Ev(ptr noundef nonnull align 8 dereferenceable(176) %9)
  %11 = xor i1 %10, true
  br i1 %11, label %12, label %16

12:                                               ; preds = %8
  %13 = load ptr, ptr %6, align 8, !tbaa !15
  %14 = getelementptr inbounds nuw %"class.euf::enode", ptr %13, i32 0, i32 19
  %15 = load ptr, ptr %14, align 8, !tbaa !367
  store ptr %15, ptr %6, align 8, !tbaa !15
  br label %8, !llvm.loop !377

16:                                               ; preds = %8
  %17 = load ptr, ptr %5, align 8, !tbaa !15
  call void @_ZN3euf5enode13mark2_targetsILb0EEEvv(ptr noundef nonnull align 8 dereferenceable(176) %17)
  %18 = load ptr, ptr %6, align 8, !tbaa !15
  ret ptr %18
}

; Function Attrs: mustprogress uwtable
define hidden void @_ZN3euf6egraph8push_lcaEPNS_5enodeES2_(ptr noundef nonnull align 8 dereferenceable(536) %0, ptr noundef %1, ptr noundef %2) #4 align 2 {
  %4 = alloca ptr, align 8
  %5 = alloca ptr, align 8
  %6 = alloca ptr, align 8
  %7 = alloca ptr, align 8
  store ptr %0, ptr %4, align 8, !tbaa !3
  store ptr %1, ptr %5, align 8, !tbaa !15
  store ptr %2, ptr %6, align 8, !tbaa !15
  %8 = load ptr, ptr %4, align 8
  call void @llvm.lifetime.start.p0(i64 8, ptr %7) #3
  %9 = load ptr, ptr %5, align 8, !tbaa !15
  %10 = load ptr, ptr %6, align 8, !tbaa !15
  %11 = call noundef ptr @_ZN3euf6egraph8find_lcaEPNS_5enodeES2_(ptr noundef nonnull align 8 dereferenceable(536) %8, ptr noundef %9, ptr noundef %10)
  store ptr %11, ptr %7, align 8, !tbaa !15
  %12 = load ptr, ptr %5, align 8, !tbaa !15
  %13 = load ptr, ptr %7, align 8, !tbaa !15
  call void @_ZN3euf6egraph11push_to_lcaEPNS_5enodeES2_(ptr noundef nonnull align 8 dereferenceable(536) %8, ptr noundef %12, ptr noundef %13)
  %14 = load ptr, ptr %6, align 8, !tbaa !15
  %15 = load ptr, ptr %7, align 8, !tbaa !15
  call void @_ZN3euf6egraph11push_to_lcaEPNS_5enodeES2_(ptr noundef nonnull align 8 dereferenceable(536) %8, ptr noundef %14, ptr noundef %15)
  call void @llvm.lifetime.end.p0(i64 8, ptr %7) #3
  ret void
}