; Function Attrs: mustprogress uwtable
define hidden void @_ZN3euf6egraph8push_lcaEPNS_5enodeES2_(ptr noundef nonnull align 8 dereferenceable(536) %0, ptr noundef %1, ptr noundef %2) local_unnamed_addr #3 align 2 {
  br label %4

4:                                                ; preds = %4, %3
  %.04.i.i = phi ptr [ %1, %3 ], [ %7, %4 ]
  %5 = getelementptr inbounds nuw i8, ptr %.04.i.i, i64 9
  store i8 1, ptr %5, align 1, !tbaa !281
  %6 = getelementptr inbounds nuw i8, ptr %.04.i.i, i64 72
  %7 = load ptr, ptr %6, align 8, !tbaa !263
  %.not.i.i = icmp eq ptr %7, null
  br i1 %.not.i.i, label %_ZN3euf5enode13mark2_targetsILb1EEEvv.exit.preheader.i, label %4, !llvm.loop !282

_ZN3euf5enode13mark2_targetsILb1EEEvv.exit.preheader.i: ; preds = %4
  %8 = getelementptr inbounds nuw i8, ptr %2, i64 9
  %9 = load i8, ptr %8, align 1, !tbaa !281, !range !109, !noundef !110
  %10 = trunc nuw i8 %9 to i1
  br i1 %10, label %.preheader.i, label %_ZN3euf5enode13mark2_targetsILb1EEEvv.exit.i

.preheader.i:                                     ; preds = %_ZN3euf5enode13mark2_targetsILb1EEEvv.exit.i, %_ZN3euf5enode13mark2_targetsILb1EEEvv.exit.preheader.i
  %.0.lcssa.i = phi ptr [ %2, %_ZN3euf5enode13mark2_targetsILb1EEEvv.exit.preheader.i ], [ %12, %_ZN3euf5enode13mark2_targetsILb1EEEvv.exit.i ]
  br label %16

_ZN3euf5enode13mark2_targetsILb1EEEvv.exit.i:     ; preds = %_ZN3euf5enode13mark2_targetsILb1EEEvv.exit.preheader.i, %_ZN3euf5enode13mark2_targetsILb1EEEvv.exit.i
  %.07.i = phi ptr [ %12, %_ZN3euf5enode13mark2_targetsILb1EEEvv.exit.i ], [ %2, %_ZN3euf5enode13mark2_targetsILb1EEEvv.exit.preheader.i ]
  %11 = getelementptr inbounds nuw i8, ptr %.07.i, i64 72
  %12 = load ptr, ptr %11, align 8, !tbaa !263
  %13 = getelementptr inbounds nuw i8, ptr %12, i64 9
  %14 = load i8, ptr %13, align 1, !tbaa !281, !range !109, !noundef !110
  %15 = trunc nuw i8 %14 to i1
  br i1 %15, label %.preheader.i, label %_ZN3euf5enode13mark2_targetsILb1EEEvv.exit.i, !llvm.loop !283

16:                                               ; preds = %16, %.preheader.i
  %.04.i5.i = phi ptr [ %19, %16 ], [ %1, %.preheader.i ]
  %17 = getelementptr inbounds nuw i8, ptr %.04.i5.i, i64 9
  store i8 0, ptr %17, align 1, !tbaa !281
  %18 = getelementptr inbounds nuw i8, ptr %.04.i5.i, i64 72
  %19 = load ptr, ptr %18, align 8, !tbaa !263
  %.not.i6.i = icmp eq ptr %19, null
  br i1 %.not.i6.i, label %_ZN3euf6egraph8find_lcaEPNS_5enodeES2_.exit, label %16, !llvm.loop !284

_ZN3euf6egraph8find_lcaEPNS_5enodeES2_.exit:      ; preds = %16
  %.not3.i = icmp eq ptr %1, %.0.lcssa.i
  br i1 %.not3.i, label %_ZN3euf6egraph11push_to_lcaEPNS_5enodeES2_.exit, label %.lr.ph.i

.lr.ph.i:                                         ; preds = %_ZN3euf6egraph8find_lcaEPNS_5enodeES2_.exit
  %20 = getelementptr inbounds nuw i8, ptr %0, i64 304
  %.pre.i = load ptr, ptr %20, align 8, !tbaa !112
  br label %21

21:                                               ; preds = %_ZN6vectorIPN3euf5enodeELb0EjE9push_backERKS2_.exit.i, %.lr.ph.i
  %22 = phi ptr [ %.pre.i, %.lr.ph.i ], [ %31, %_ZN6vectorIPN3euf5enodeELb0EjE9push_backERKS2_.exit.i ]
  %storemerge4.i = phi ptr [ %1, %.lr.ph.i ], [ %38, %_ZN6vectorIPN3euf5enodeELb0EjE9push_backERKS2_.exit.i ]
  %23 = icmp eq ptr %22, null
  br i1 %23, label %30, label %24

24:                                               ; preds = %21
  %25 = getelementptr inbounds i8, ptr %22, i64 -4
  %26 = load i32, ptr %25, align 4, !tbaa !113
  %27 = getelementptr inbounds i8, ptr %22, i64 -8
  %28 = load i32, ptr %27, align 4, !tbaa !113
  %29 = icmp eq i32 %26, %28
  br i1 %29, label %30, label %_ZN6vectorIPN3euf5enodeELb0EjE9push_backERKS2_.exit.i

30:                                               ; preds = %24, %21
  tail call void @_ZN6vectorIPN3euf5enodeELb0EjE13expand_vectorEv(ptr noundef nonnull align 8 dereferenceable(8) %20)
  %.pre.i.i = load ptr, ptr %20, align 8, !tbaa !112
  %.phi.trans.insert.i.i = getelementptr inbounds i8, ptr %.pre.i.i, i64 -4
  %.pre2.i.i = load i32, ptr %.phi.trans.insert.i.i, align 4, !tbaa !113
  br label %_ZN6vectorIPN3euf5enodeELb0EjE9push_backERKS2_.exit.i

_ZN6vectorIPN3euf5enodeELb0EjE9push_backERKS2_.exit.i: ; preds = %30, %24
  %31 = phi ptr [ %.pre.i.i, %30 ], [ %22, %24 ]
  %32 = phi i32 [ %.pre2.i.i, %30 ], [ %26, %24 ]
  %33 = getelementptr inbounds i8, ptr %31, i64 -4
  %34 = zext i32 %32 to i64
  %35 = getelementptr inbounds nuw ptr, ptr %31, i64 %34
  store ptr %storemerge4.i, ptr %35, align 8, !tbaa !47
  %36 = add i32 %32, 1
  store i32 %36, ptr %33, align 4, !tbaa !113
  %37 = getelementptr inbounds nuw i8, ptr %storemerge4.i, i64 72
  %38 = load ptr, ptr %37, align 8, !tbaa !263
  %.not.i = icmp eq ptr %38, %.0.lcssa.i
  br i1 %.not.i, label %_ZN3euf6egraph11push_to_lcaEPNS_5enodeES2_.exit, label %21, !llvm.loop !285

_ZN3euf6egraph11push_to_lcaEPNS_5enodeES2_.exit:  ; preds = %_ZN6vectorIPN3euf5enodeELb0EjE9push_backERKS2_.exit.i, %_ZN3euf6egraph8find_lcaEPNS_5enodeES2_.exit
  %.not3.i7 = icmp eq ptr %2, %.0.lcssa.i
  br i1 %.not3.i7, label %_ZN3euf6egraph11push_to_lcaEPNS_5enodeES2_.exit16, label %.lr.ph.i8

.lr.ph.i8:                                        ; preds = %_ZN3euf6egraph11push_to_lcaEPNS_5enodeES2_.exit
  %39 = getelementptr inbounds nuw i8, ptr %0, i64 304
  %.pre.i9 = load ptr, ptr %39, align 8, !tbaa !112
  br label %40

40:                                               ; preds = %_ZN6vectorIPN3euf5enodeELb0EjE9push_backERKS2_.exit.i11, %.lr.ph.i8
  %41 = phi ptr [ %.pre.i9, %.lr.ph.i8 ], [ %50, %_ZN6vectorIPN3euf5enodeELb0EjE9push_backERKS2_.exit.i11 ]
  %storemerge4.i10 = phi ptr [ %2, %.lr.ph.i8 ], [ %57, %_ZN6vectorIPN3euf5enodeELb0EjE9push_backERKS2_.exit.i11 ]
  %42 = icmp eq ptr %41, null
  br i1 %42, label %49, label %43

43:                                               ; preds = %40
  %44 = getelementptr inbounds i8, ptr %41, i64 -4
  %45 = load i32, ptr %44, align 4, !tbaa !113
  %46 = getelementptr inbounds i8, ptr %41, i64 -8
  %47 = load i32, ptr %46, align 4, !tbaa !113
  %48 = icmp eq i32 %45, %47
  br i1 %48, label %49, label %_ZN6vectorIPN3euf5enodeELb0EjE9push_backERKS2_.exit.i11

49:                                               ; preds = %43, %40
  tail call void @_ZN6vectorIPN3euf5enodeELb0EjE13expand_vectorEv(ptr noundef nonnull align 8 dereferenceable(8) %39)
  %.pre.i.i13 = load ptr, ptr %39, align 8, !tbaa !112
  %.phi.trans.insert.i.i14 = getelementptr inbounds i8, ptr %.pre.i.i13, i64 -4
  %.pre2.i.i15 = load i32, ptr %.phi.trans.insert.i.i14, align 4, !tbaa !113
  br label %_ZN6vectorIPN3euf5enodeELb0EjE9push_backERKS2_.exit.i11

_ZN6vectorIPN3euf5enodeELb0EjE9push_backERKS2_.exit.i11: ; preds = %49, %43
  %50 = phi ptr [ %.pre.i.i13, %49 ], [ %41, %43 ]
  %51 = phi i32 [ %.pre2.i.i15, %49 ], [ %45, %43 ]
  %52 = getelementptr inbounds i8, ptr %50, i64 -4
  %53 = zext i32 %51 to i64
  %54 = getelementptr inbounds nuw ptr, ptr %50, i64 %53
  store ptr %storemerge4.i10, ptr %54, align 8, !tbaa !47
  %55 = add i32 %51, 1
  store i32 %55, ptr %52, align 4, !tbaa !113
  %56 = getelementptr inbounds nuw i8, ptr %storemerge4.i10, i64 72
  %57 = load ptr, ptr %56, align 8, !tbaa !263
  %.not.i12 = icmp eq ptr %57, %.0.lcssa.i
  br i1 %.not.i12, label %_ZN3euf6egraph11push_to_lcaEPNS_5enodeES2_.exit16, label %40, !llvm.loop !285

_ZN3euf6egraph11push_to_lcaEPNS_5enodeES2_.exit16: ; preds = %_ZN6vectorIPN3euf5enodeELb0EjE9push_backERKS2_.exit.i11, %_ZN3euf6egraph11push_to_lcaEPNS_5enodeES2_.exit
  ret void
}